	.file	"main.c"
	.intel_syntax noprefix
	.text
	.def	printf;	.scl	3;	.type	32;	.endef
	.seh_proc	printf
printf:
	push	rbp
	.seh_pushreg	rbp
	push	rbx
	.seh_pushreg	rbx
	sub	rsp, 56
	.seh_stackalloc	56
	lea	rbp, 48[rsp]
	.seh_setframe	rbp, 48
	.seh_endprologue
	mov	QWORD PTR 32[rbp], rcx
	mov	QWORD PTR 40[rbp], rdx
	mov	QWORD PTR 48[rbp], r8
	mov	QWORD PTR 56[rbp], r9
	lea	rax, 40[rbp]
	mov	QWORD PTR -16[rbp], rax
	mov	rbx, QWORD PTR -16[rbp]
	mov	ecx, 1
	mov	rax, QWORD PTR __imp___acrt_iob_func[rip]
	call	rax
	mov	r8, rbx
	mov	rdx, QWORD PTR 32[rbp]
	mov	rcx, rax
	call	__mingw_vfprintf
	mov	DWORD PTR -4[rbp], eax
	mov	eax, DWORD PTR -4[rbp]
	add	rsp, 56
	pop	rbx
	pop	rbp
	ret
	.seh_endproc
	.globl	resta
	.def	resta;	.scl	2;	.type	32;	.endef
	.seh_proc	resta
resta:
	push	rbp
	.seh_pushreg	rbp
	mov	rbp, rsp
	.seh_setframe	rbp, 0
	.seh_endprologue
	movsd	QWORD PTR 16[rbp], xmm0
	movsd	QWORD PTR 24[rbp], xmm1
	movsd	xmm0, QWORD PTR 16[rbp]
	subsd	xmm0, QWORD PTR 24[rbp]
	movq	rax, xmm0
	movq	xmm0, rax
	pop	rbp
	ret
	.seh_endproc
	.def	__main;	.scl	2;	.type	32;	.endef
	.section .rdata,"dr"
.LC0:
	.ascii "Hola Mundo\12\0"
	.text
	.globl	main
	.def	main;	.scl	2;	.type	32;	.endef
	.seh_proc	main
main:
	push	rbp
	.seh_pushreg	rbp
	mov	rbp, rsp
	.seh_setframe	rbp, 0
	sub	rsp, 32
	.seh_stackalloc	32
	.seh_endprologue
	call	__main
	lea	rcx, .LC0[rip]
	call	printf
	mov	eax, 0
	add	rsp, 32
	pop	rbp
	ret
	.seh_endproc
	.ident	"GCC: (tdm64-1) 10.3.0"
	.def	__mingw_vfprintf;	.scl	2;	.type	32;	.endef
